(lp0
S'poi'
p1
aS'deferral_payments'
p2
aS'total_payments'
p3
aS'loan_advances'
p4
aS'restricted_stock_deferred'
p5
aS'exercised_stock_options'
p6
aS'director_fees'
p7
aS'to_messages'
p8
aS'from_poi_to_this_person'
p9
aS'from_messages'
p10
aS'from_this_person_to_poi'
p11
aS'shared_receipt_with_poi'
p12
aS'frac_from_poi'
p13
aS'frac_to_poi'
p14
a.